; Function Attrs: mustprogress nounwind uwtable
define hidden void @_ZN6hermes3sem17SemanticValidator5visitEPNS_6ESTree14IdentifierNodeE(ptr noundef nonnull readonly align 8 captures(none) dereferenceable(168) %this, ptr noundef readonly captures(none) %identifier) local_unnamed_addr #0 align 2 {
entry:
  %ref.tmp = alloca %"class.llvh::Twine", align 8
  %_name = getelementptr inbounds nuw i8, ptr %identifier, i64 48
  %0 = load ptr, ptr %_name, align 8
  %kw_ = getelementptr inbounds nuw i8, ptr %this, i64 40
  %identEval = getelementptr inbounds nuw i8, ptr %this, i64 48
  %1 = load ptr, ptr %identEval, align 8
  %cmp = icmp eq ptr %0, %1
  br i1 %cmp, label %land.lhs.true, label %if.end

land.lhs.true:                                    ; preds = %entry
  %2 = load ptr, ptr %this, align 8
  %enableEval_.i = getelementptr inbounds nuw i8, ptr %2, i64 169
  %3 = load i8, ptr %enableEval_.i, align 1
  %tobool.i = trunc i8 %3 to i1
  br i1 %tobool.i, label %if.end, label %if.then

if.then:                                          ; preds = %land.lhs.true
  %sm_ = getelementptr inbounds nuw i8, ptr %this, i64 8
  %4 = load ptr, ptr %sm_, align 8
  %sourceRange_.i = getelementptr inbounds nuw i8, ptr %identifier, i64 24
  %retval.sroa.0.0.copyload.i = load ptr, ptr %sourceRange_.i, align 8
  %retval.sroa.2.0.sourceRange_.sroa_idx.i = getelementptr inbounds nuw i8, ptr %identifier, i64 32
  %retval.sroa.2.0.copyload.i = load ptr, ptr %retval.sroa.2.0.sourceRange_.sroa_idx.i, align 8
  %LHSKind.i = getelementptr inbounds nuw i8, ptr %ref.tmp, i64 16
  %RHSKind.i = getelementptr inbounds nuw i8, ptr %ref.tmp, i64 17
  store i8 1, ptr %RHSKind.i, align 1
  store ptr @.str.22, ptr %ref.tmp, align 8
  store i8 3, ptr %LHSKind.i, align 8
  call void @_ZN6hermes18SourceErrorManager7messageENS0_8DiagKindEN4llvh7SMRangeERKNS2_5TwineENS_9SubsystemE(ptr noundef nonnull align 8 dereferenceable(464) %4, i32 noundef 0, ptr %retval.sroa.0.0.copyload.i, ptr %retval.sroa.2.0.copyload.i, ptr noundef nonnull align 8 dereferenceable(18) %ref.tmp, i32 noundef 0) #21
  %.pre = load ptr, ptr %_name, align 8
  br label %if.end

if.end:                                           ; preds = %if.then, %land.lhs.true, %entry
  %5 = phi ptr [ %.pre, %if.then ], [ %0, %land.lhs.true ], [ %0, %entry ]
  %6 = load ptr, ptr %kw_, align 8
  %cmp5 = icmp eq ptr %5, %6
  br i1 %cmp5, label %if.then6, label %if.end8

if.then6:                                         ; preds = %if.end
  %funcCtx_.i = getelementptr inbounds nuw i8, ptr %this, i64 152
  %7 = load ptr, ptr %funcCtx_.i, align 8
  %semInfo = getelementptr inbounds nuw i8, ptr %7, i64 32
  %8 = load ptr, ptr %semInfo, align 8
  %usesArguments = getelementptr inbounds nuw i8, ptr %8, i64 304
  store i8 1, ptr %usesArguments, align 8
  br label %if.end8

if.end8:                                          ; preds = %if.then6, %if.end
  ret void
}